target datalayout = "e-m:e-p270:32:32-p271:32:32-p272:64:64-i64:64-i128:128-f80:128-n8:16:32:64-S128"
target triple = "x86_64-pc-linux-gnu"

%struct.PJconsts = type { ptr, ptr, ptr, ptr, ptr, ptr, ptr, ptr, ptr, ptr, ptr, ptr, i32, ptr, ptr, ptr, ptr, ptr, ptr, ptr, ptr, double, double, double, double, double, double, double, double, double, double, double, double, double, double, double, double, double, double, double, double, double, double, i32, i32, i32, i32, i32, i32, i32, i32, i32, i32, i32, ptr, ptr, ptr, ptr, ptr, ptr, double, double, double, double, double, double, double, double, double, double, double, i32, [7 x double], i32, ptr, ptr, double, double, i32, [4 x i8], %"class.std::shared_ptr", i8, double, i8, %"class.std::__cxx11::basic_string", %"class.std::__cxx11::basic_string", %"class.std::__cxx11::basic_string", i8, %"class.std::vector", i32, %"class.std::vector.3", i32, i8, i8, i8, ptr }
%"class.std::shared_ptr" = type { %"class.std::__shared_ptr" }
%"class.std::__shared_ptr" = type { ptr, %"class.std::__shared_count" }
%"class.std::__shared_count" = type { ptr }
%"class.std::__cxx11::basic_string" = type { %"struct.std::__cxx11::basic_string<char>::_Alloc_hider", i64, %union.anon }
%"struct.std::__cxx11::basic_string<char>::_Alloc_hider" = type { ptr }
%union.anon = type { i64, [8 x i8] }
%"class.std::vector" = type { %"struct.std::_Vector_base" }
%"struct.std::_Vector_base" = type { %"struct.std::_Vector_base<osgeo::proj::operation::GridDescription, std::allocator<osgeo::proj::operation::GridDescription>>::_Vector_impl" }
%"struct.std::_Vector_base<osgeo::proj::operation::GridDescription, std::allocator<osgeo::proj::operation::GridDescription>>::_Vector_impl" = type { %"struct.std::_Vector_base<osgeo::proj::operation::GridDescription, std::allocator<osgeo::proj::operation::GridDescription>>::_Vector_impl_data" }
%"struct.std::_Vector_base<osgeo::proj::operation::GridDescription, std::allocator<osgeo::proj::operation::GridDescription>>::_Vector_impl_data" = type { ptr, ptr, ptr }
%"class.std::vector.3" = type { %"struct.std::_Vector_base.4" }
%"struct.std::_Vector_base.4" = type { %"struct.std::_Vector_base<PJCoordOperation, std::allocator<PJCoordOperation>>::_Vector_impl" }
%"struct.std::_Vector_base<PJCoordOperation, std::allocator<PJCoordOperation>>::_Vector_impl" = type { %"struct.std::_Vector_base<PJCoordOperation, std::allocator<PJCoordOperation>>::_Vector_impl_data" }
%"struct.std::_Vector_base<PJCoordOperation, std::allocator<PJCoordOperation>>::_Vector_impl_data" = type { ptr, ptr, ptr }
%"struct.(anonymous namespace)::pj_gn_sinu_data" = type { ptr, double, double, double, double }
%struct.PJ_LP = type { double, double }
%struct.PJ_XY = type { double, double }

; Function Attrs: mustprogress uwtable
define internal { double, double } @_ZL17gn_sinu_e_forward5PJ_LPP8PJconsts(double %0, double %1, ptr noundef %2) #0 {
  %4 = alloca %struct.PJ_XY, align 8
  %5 = alloca %struct.PJ_LP, align 8
  %6 = alloca ptr, align 8
  %7 = alloca double, align 8
  %8 = alloca double, align 8
  %9 = getelementptr inbounds nuw { double, double }, ptr %5, i32 0, i32 0
  store double %0, ptr %9, align 8
  %10 = getelementptr inbounds nuw { double, double }, ptr %5, i32 0, i32 1
  store double %1, ptr %10, align 8
  store ptr %2, ptr %6, align 8, !tbaa !3
  call void @llvm.memset.p0.i64(ptr align 8 %4, i8 0, i64 16, i1 false)
  call void @llvm.lifetime.start.p0(i64 8, ptr %7) #8
  %11 = getelementptr inbounds nuw %struct.PJ_LP, ptr %5, i32 0, i32 1
  %12 = load double, ptr %11, align 8, !tbaa !57
  %13 = call double @sin(double noundef %12) #8, !tbaa !54
  store double %13, ptr %7, align 8, !tbaa !59
  call void @llvm.lifetime.start.p0(i64 8, ptr %8) #8
  %14 = getelementptr inbounds nuw %struct.PJ_LP, ptr %5, i32 0, i32 1
  %15 = load double, ptr %14, align 8, !tbaa !57
  %16 = call double @cos(double noundef %15) #8, !tbaa !54
  store double %16, ptr %8, align 8, !tbaa !59
  %17 = getelementptr inbounds nuw %struct.PJ_LP, ptr %5, i32 0, i32 1
  %18 = load double, ptr %17, align 8, !tbaa !57
  %19 = load double, ptr %7, align 8, !tbaa !59
  %20 = load double, ptr %8, align 8, !tbaa !59
  %21 = load ptr, ptr %6, align 8, !tbaa !3
  %22 = getelementptr inbounds nuw %struct.PJconsts, ptr %21, i32 0, i32 11
  %23 = load ptr, ptr %22, align 8, !tbaa !43
  %24 = getelementptr inbounds nuw %"struct.(anonymous namespace)::pj_gn_sinu_data", ptr %23, i32 0, i32 0
  %25 = load ptr, ptr %24, align 8, !tbaa !46
  %26 = call noundef double @_Z7pj_mlfndddPKd(double noundef %18, double noundef %19, double noundef %20, ptr noundef %25)
  %27 = getelementptr inbounds nuw %struct.PJ_XY, ptr %4, i32 0, i32 1
  store double %26, ptr %27, align 8, !tbaa !55
  %28 = getelementptr inbounds nuw %struct.PJ_LP, ptr %5, i32 0, i32 0
  %29 = load double, ptr %28, align 8, !tbaa !61
  %30 = load double, ptr %8, align 8, !tbaa !59
  %31 = fmul double %29, %30
  %32 = load ptr, ptr %6, align 8, !tbaa !3
  %33 = getelementptr inbounds nuw %struct.PJconsts, ptr %32, i32 0, i32 27
  %34 = load double, ptr %33, align 8, !tbaa !49
  %35 = load double, ptr %7, align 8, !tbaa !59
  %36 = fmul double %34, %35
  %37 = load double, ptr %7, align 8, !tbaa !59
  %38 = fneg double %36
  %39 = call double @llvm.fmuladd.f64(double %38, double %37, double 1.000000e+00)
  %40 = call double @sqrt(double noundef %39) #8, !tbaa !54
  %41 = fdiv double %31, %40
  %42 = getelementptr inbounds nuw %struct.PJ_XY, ptr %4, i32 0, i32 0
  store double %41, ptr %42, align 8, !tbaa !60
  call void @llvm.lifetime.end.p0(i64 8, ptr %8) #8
  call void @llvm.lifetime.end.p0(i64 8, ptr %7) #8
  %43 = load { double, double }, ptr %4, align 8
  ret { double, double } %43
}