; Function Attrs: mustprogress uwtable
define internal { double, double } @_ZL17gn_sinu_e_forward5PJ_LPP8PJconsts(double %0, double %1, ptr noundef readonly captures(none) %2) #0 {
  %4 = tail call double @sin(double noundef %1) #7, !tbaa !51
  %5 = tail call double @cos(double noundef %1) #7, !tbaa !51
  %6 = getelementptr inbounds nuw i8, ptr %2, i64 88
  %7 = load ptr, ptr %6, align 8, !tbaa !40
  %8 = load ptr, ptr %7, align 8, !tbaa !43
  %9 = tail call noundef double @_Z7pj_mlfndddPKd(double noundef %1, double noundef %4, double noundef %5, ptr noundef %8)
  %10 = fmul double %0, %5
  %11 = getelementptr inbounds nuw i8, ptr %2, i64 216
  %12 = load double, ptr %11, align 8, !tbaa !46
  %13 = fneg double %4
  %14 = fmul double %12, %13
  %15 = tail call double @llvm.fmuladd.f64(double %14, double %4, double 1.000000e+00)
  %16 = tail call double @sqrt(double noundef %15) #7, !tbaa !51
  %17 = fdiv double %10, %16
  %.fca.0.insert = insertvalue { double, double } poison, double %17, 0
  %.fca.1.insert = insertvalue { double, double } %.fca.0.insert, double %9, 1
  ret { double, double } %.fca.1.insert
}